; Function Attrs: mustprogress nounwind uwtable
define dso_local void @_ZN4node19SetIsolateUpForNodeEPN2v87IsolateE(ptr noundef nonnull %isolate) local_unnamed_addr #3 {
_ZN4node23SetIsolateErrorHandlersEPN2v87IsolateERKNS_15IsolateSettingsE.exit:
  %settings = alloca %"struct.node::IsolateSettings", align 8
  store i64 3, ptr %settings, align 8
  %policy.i = getelementptr inbounds i8, ptr %settings, i64 8
  store i32 0, ptr %policy.i, align 8
  %should_abort_on_uncaught_exception_callback.i = getelementptr inbounds i8, ptr %settings, i64 16
  call void @llvm.memset.p0.i64(ptr noundef nonnull align 8 dereferenceable(48) %should_abort_on_uncaught_exception_callback.i, i8 0, i64 48, i1 false)
  tail call void @_ZN2v87Isolate5EnterEv(ptr noundef nonnull align 1 dereferenceable(1) %isolate) #12
  %call.i = tail call noundef zeroext i1 @_ZN2v87Isolate32AddMessageListenerWithErrorLevelEPFvNS_5LocalINS_7MessageEEENS1_INS_5ValueEEEEiS5_(ptr noundef nonnull align 1 dereferenceable(1) %isolate, ptr noundef nonnull @_ZN4node6errors25PerIsolateMessageListenerEN2v85LocalINS1_7MessageEEENS2_INS1_5ValueEEE, i32 noundef 24, ptr null) #12
  tail call void @_ZN2v87Isolate35SetAbortOnUncaughtExceptionCallbackEPFbPS0_E(ptr noundef nonnull align 1 dereferenceable(1) %isolate, ptr noundef nonnull @_ZN4node30ShouldAbortOnUncaughtExceptionEPN2v87IsolateE) #12
  tail call void @_ZN2v87Isolate20SetFatalErrorHandlerEPFvPKcS2_E(ptr noundef nonnull align 1 dereferenceable(1) %isolate, ptr noundef nonnull @_ZN4node12OnFatalErrorEPKcS1_) #12
  tail call void @_ZN2v87Isolate18SetOOMErrorHandlerEPFvPKcRKNS_10OOMDetailsEE(ptr noundef nonnull align 1 dereferenceable(1) %isolate, ptr noundef nonnull @_ZN4node15OOMErrorHandlerEPKcRKN2v810OOMDetailsE) #12
  tail call void @_ZN2v87Isolate28SetPrepareStackTraceCallbackEPFNS_10MaybeLocalINS_5ValueEEENS_5LocalINS_7ContextEEENS4_IS2_EENS4_INS_5ArrayEEEE(ptr noundef nonnull align 1 dereferenceable(1) %isolate, ptr noundef nonnull @_ZN4node25PrepareStackTraceCallbackEN2v85LocalINS0_7ContextEEENS1_INS0_5ValueEEENS1_INS0_5ArrayEEE) #12
  call void @_ZN4node22SetIsolateMiscHandlersEPN2v87IsolateERKNS_15IsolateSettingsE(ptr noundef %isolate, ptr noundef nonnull align 8 dereferenceable(64) %settings)
  tail call void @_ZN2v87Isolate4ExitEv(ptr noundef nonnull align 1 dereferenceable(1) %isolate) #12
  ret void
}